target datalayout = "e-m:e-p270:32:32-p271:32:32-p272:64:64-i64:64-i128:128-f80:128-n8:16:32:64-S128"
target triple = "x86_64-pc-linux-gnu"

@g_ascii_table = external constant ptr, align 8

; Function Attrs: nounwind null_pointer_is_valid sspstrong uwtable
define internal i32 @parse_outhdr_string(ptr noundef %0, i32 noundef %1, ptr noundef %2) #5 {
  %4 = alloca ptr, align 8
  %5 = alloca i32, align 4
  %6 = alloca ptr, align 8
  %7 = alloca i32, align 4
  %8 = alloca i32, align 4
  %9 = alloca [32 x i32], align 16
  %10 = alloca i32, align 4
  %11 = alloca i32, align 4
  %12 = alloca i32, align 4
  %13 = alloca i32, align 4
  %14 = alloca i32, align 4
  store ptr %0, ptr %4, align 8
  store i32 %1, ptr %5, align 4
  store ptr %2, ptr %6, align 8
  call void @llvm.lifetime.start.p0(i64 4, ptr %7) #12
  store i32 0, ptr %7, align 4
  call void @llvm.lifetime.start.p0(i64 4, ptr %8) #12
  store i32 0, ptr %8, align 4
  br label %15

15:                                               ; preds = %93, %3
  %16 = load i32, ptr %8, align 4
  %17 = icmp slt i32 %16, 32
  br i1 %17, label %18, label %94

18:                                               ; preds = %15
  call void @llvm.lifetime.start.p0(i64 128, ptr %9) #12
  call void @llvm.lifetime.start.p0(i64 4, ptr %10) #12
  store i32 0, ptr %10, align 4
  call void @llvm.lifetime.start.p0(i64 4, ptr %11) #12
  store i32 0, ptr %11, align 4
  call void @llvm.lifetime.start.p0(i64 4, ptr %12) #12
  store i32 1, ptr %12, align 4
  call void @llvm.lifetime.start.p0(i64 4, ptr %13) #12
  br label %19

19:                                               ; preds = %55, %18
  %20 = load i32, ptr %7, align 4
  %21 = load i32, ptr %5, align 4
  %22 = icmp slt i32 %20, %21
  br i1 %22, label %23, label %26

23:                                               ; preds = %19
  %24 = load i32, ptr %10, align 4
  %25 = icmp ult i32 %24, 32
  br label %26

26:                                               ; preds = %23, %19
  %27 = phi i1 [ false, %19 ], [ %25, %23 ]
  br i1 %27, label %28, label %58

28:                                               ; preds = %26
  %29 = load ptr, ptr @g_ascii_table, align 8
  %30 = load ptr, ptr %4, align 8
  %31 = load i32, ptr %7, align 4
  %32 = sext i32 %31 to i64
  %33 = getelementptr i8, ptr %30, i64 %32
  %34 = load i8, ptr %33, align 1
  %35 = zext i8 %34 to i64
  %36 = getelementptr i16, ptr %29, i64 %35
  %37 = load i16, ptr %36, align 2
  %38 = zext i16 %37 to i32
  %39 = and i32 %38, 8
  %40 = icmp ne i32 %39, 0
  br i1 %40, label %42, label %41

41:                                               ; preds = %28
  br label %58

42:                                               ; preds = %28
  %43 = load ptr, ptr %4, align 8
  %44 = load i32, ptr %7, align 4
  %45 = sext i32 %44 to i64
  %46 = getelementptr i8, ptr %43, i64 %45
  %47 = load i8, ptr %46, align 1
  %48 = zext i8 %47 to i32
  %49 = sub i32 %48, 48
  %50 = load i32, ptr %10, align 4
  %51 = add i32 %50, 1
  store i32 %51, ptr %10, align 4
  %52 = zext i32 %50 to i64
  %53 = getelementptr [32 x i32], ptr %9, i64 0, i64 %52
  store i32 %49, ptr %53, align 4
  br label %54

54:                                               ; preds = %42
  br label %55

55:                                               ; preds = %54
  %56 = load i32, ptr %7, align 4
  %57 = add i32 %56, 1
  store i32 %57, ptr %7, align 4
  br label %19, !llvm.loop !17

58:                                               ; preds = %41, %26
  %59 = load i32, ptr %10, align 4
  %60 = icmp eq i32 %59, 0
  br i1 %60, label %61, label %62

61:                                               ; preds = %58
  store i32 2, ptr %14, align 4
  br label %91

62:                                               ; preds = %58
  %63 = load i32, ptr %10, align 4
  store i32 %63, ptr %13, align 4
  br label %64

64:                                               ; preds = %79, %62
  %65 = load i32, ptr %13, align 4
  %66 = icmp ugt i32 %65, 0
  br i1 %66, label %67, label %82

67:                                               ; preds = %64
  %68 = load i32, ptr %13, align 4
  %69 = sub i32 %68, 1
  %70 = zext i32 %69 to i64
  %71 = getelementptr [32 x i32], ptr %9, i64 0, i64 %70
  %72 = load i32, ptr %71, align 4
  %73 = load i32, ptr %12, align 4
  %74 = mul i32 %72, %73
  %75 = load i32, ptr %11, align 4
  %76 = add i32 %75, %74
  store i32 %76, ptr %11, align 4
  %77 = load i32, ptr %12, align 4
  %78 = mul i32 %77, 10
  store i32 %78, ptr %12, align 4
  br label %79

79:                                               ; preds = %67
  %80 = load i32, ptr %13, align 4
  %81 = add i32 %80, -1
  store i32 %81, ptr %13, align 4
  br label %64, !llvm.loop !18

82:                                               ; preds = %64
  %83 = load i32, ptr %11, align 4
  %84 = load ptr, ptr %6, align 8
  %85 = load i32, ptr %8, align 4
  %86 = add i32 %85, 1
  store i32 %86, ptr %8, align 4
  %87 = sext i32 %85 to i64
  %88 = getelementptr i32, ptr %84, i64 %87
  store i32 %83, ptr %88, align 4
  %89 = load i32, ptr %7, align 4
  %90 = add i32 %89, 1
  store i32 %90, ptr %7, align 4
  store i32 0, ptr %14, align 4
  br label %91

91:                                               ; preds = %82, %61
  call void @llvm.lifetime.end.p0(i64 4, ptr %13) #12
  call void @llvm.lifetime.end.p0(i64 4, ptr %12) #12
  call void @llvm.lifetime.end.p0(i64 4, ptr %11) #12
  call void @llvm.lifetime.end.p0(i64 4, ptr %10) #12
  call void @llvm.lifetime.end.p0(i64 128, ptr %9) #12
  %92 = load i32, ptr %14, align 4
  switch i32 %92, label %96 [
    i32 0, label %93
    i32 2, label %94
  ]

93:                                               ; preds = %91
  br label %15, !llvm.loop !19

94:                                               ; preds = %91, %15
  %95 = load i32, ptr %8, align 4
  store i32 1, ptr %14, align 4
  call void @llvm.lifetime.end.p0(i64 4, ptr %8) #12
  call void @llvm.lifetime.end.p0(i64 4, ptr %7) #12
  ret i32 %95

96:                                               ; preds = %91
  unreachable
}