; Function Attrs: nofree norecurse nosync nounwind null_pointer_is_valid sspstrong memory(read, argmem: readwrite, inaccessiblemem: none) uwtable
define internal fastcc i32 @parse_outhdr_string(ptr noundef readonly captures(none) %0, i32 noundef %1, ptr noundef writeonly captures(none) %2) unnamed_addr #4 {
  %4 = alloca [32 x i32], align 16
  %5 = load ptr, ptr @g_ascii_table, align 8
  %6 = sext i32 %1 to i64
  br label %7

7:                                                ; preds = %3, %33
  %indvars.iv60 = phi i64 [ 0, %3 ], [ %indvars.iv.next61, %33 ]
  %.02847 = phi i32 [ 0, %3 ], [ %35, %33 ]
  call void @llvm.lifetime.start.p0(i64 128, ptr nonnull %4) #12
  %8 = icmp slt i32 %.02847, %1
  br i1 %8, label %.lr.ph.preheader, label %.thread

.lr.ph.preheader:                                 ; preds = %7
  %9 = sext i32 %.02847 to i64
  br label %.lr.ph

.lr.ph:                                           ; preds = %.lr.ph.preheader, %16
  %indvars.iv51 = phi i64 [ %9, %.lr.ph.preheader ], [ %indvars.iv.next52, %16 ]
  %indvars.iv = phi i64 [ 0, %.lr.ph.preheader ], [ %indvars.iv.next, %16 ]
  %10 = getelementptr i8, ptr %0, i64 %indvars.iv51
  %11 = load i8, ptr %10, align 1
  %12 = zext i8 %11 to i64
  %13 = getelementptr i16, ptr %5, i64 %12
  %14 = load i16, ptr %13, align 2
  %15 = and i16 %14, 8
  %.not = icmp eq i16 %15, 0
  br i1 %.not, label %._crit_edge, label %16

16:                                               ; preds = %.lr.ph
  %17 = zext i8 %11 to i32
  %18 = add nsw i32 %17, -48
  %indvars.iv.next = add nuw nsw i64 %indvars.iv, 1
  %19 = getelementptr [32 x i32], ptr %4, i64 0, i64 %indvars.iv
  store i32 %18, ptr %19, align 4
  %indvars.iv.next52 = add nsw i64 %indvars.iv51, 1
  %20 = icmp slt i64 %indvars.iv.next52, %6
  %21 = icmp samesign ult i64 %indvars.iv, 31
  %22 = select i1 %20, i1 %21, i1 false
  br i1 %22, label %.lr.ph, label %._crit_edge, !llvm.loop !8

._crit_edge:                                      ; preds = %16, %.lr.ph
  %.129.lcssa.ph.in = phi i64 [ %indvars.iv.next52, %16 ], [ %indvars.iv51, %.lr.ph ]
  %.026.lcssa.ph.in = phi i64 [ %indvars.iv.next, %16 ], [ %indvars.iv, %.lr.ph ]
  %.129.lcssa.ph = trunc i64 %.129.lcssa.ph.in to i32
  %23 = and i64 %.026.lcssa.ph.in, 4294967295
  %24 = icmp eq i64 %23, 0
  br i1 %24, label %.thread, label %.preheader.preheader

.preheader.preheader:                             ; preds = %._crit_edge
  %25 = and i64 %.026.lcssa.ph.in, 4294967295
  br label %.preheader

.thread:                                          ; preds = %7, %._crit_edge
  %26 = trunc nuw nsw i64 %indvars.iv60 to i32
  call void @llvm.lifetime.end.p0(i64 128, ptr nonnull %4) #12
  br label %.loopexit

.preheader:                                       ; preds = %.preheader.preheader, %.preheader
  %indvars.iv56 = phi i64 [ %25, %.preheader.preheader ], [ %27, %.preheader ]
  %.02445 = phi i32 [ 1, %.preheader.preheader ], [ %32, %.preheader ]
  %.02544 = phi i32 [ 0, %.preheader.preheader ], [ %31, %.preheader ]
  %27 = add nsw i64 %indvars.iv56, -1
  %28 = getelementptr [32 x i32], ptr %4, i64 0, i64 %27
  %29 = load i32, ptr %28, align 4
  %30 = mul i32 %29, %.02445
  %31 = add i32 %30, %.02544
  %32 = mul i32 %.02445, 10
  %.not31.wide = icmp eq i64 %27, 0
  br i1 %.not31.wide, label %33, label %.preheader, !llvm.loop !9

33:                                               ; preds = %.preheader
  %indvars.iv.next61 = add nuw nsw i64 %indvars.iv60, 1
  %34 = getelementptr i32, ptr %2, i64 %indvars.iv60
  store i32 %31, ptr %34, align 4
  %35 = add i32 %.129.lcssa.ph, 1
  call void @llvm.lifetime.end.p0(i64 128, ptr nonnull %4) #12
  %exitcond.not = icmp eq i64 %indvars.iv.next61, 32
  br i1 %exitcond.not, label %.loopexit, label %7

.loopexit:                                        ; preds = %33, %.thread
  %.02737 = phi i32 [ %26, %.thread ], [ 32, %33 ]
  ret i32 %.02737
}